; ModuleID = '40/2954.c'
source_filename = "40/2954.c"
target datalayout = "e-m:e-p270:32:32-p271:32:32-p272:64:64-i64:64-f80:128-n8:16:32:64-S128"
target triple = "x86_64-pc-linux-gnu"

@.str = private unnamed_addr constant [16 x i8] c"%lf%lf%lf%lf%lf\00", align 1
@.str.1 = private unnamed_addr constant [14 x i8] c"Invalid input\00", align 1
@.str.2 = private unnamed_addr constant [6 x i8] c"%.4lf\00", align 1

; Function Attrs: noinline nounwind uwtable
define dso_local i32 @main() #0 {
  %1 = alloca i32, align 4
  %2 = alloca double, align 8
  %3 = alloca double, align 8
  %4 = alloca double, align 8
  %5 = alloca double, align 8
  %6 = alloca double, align 8
  %7 = alloca double, align 8
  %8 = alloca double, align 8
  %9 = alloca double, align 8
  %10 = alloca double, align 8
  store i32 0, i32* %1, align 4
  %11 = call i32 (i8*, ...) @__isoc99_scanf(i8* getelementptr inbounds ([16 x i8], [16 x i8]* @.str, i64 0, i64 0), double* %2, double* %3, double* %4, double* %5, double* %6)
  store double 0x400921FB4D12D84A, double* %7, align 8
  %12 = load double, double* %6, align 8
  %13 = load double, double* %7, align 8
  %14 = fmul double %12, %13
  %15 = fdiv double %14, 3.600000e+02
  store double %15, double* %8, align 8
  %16 = load double, double* %6, align 8
  %17 = fcmp oeq double %16, 0.000000e+00
  br i1 %17, label %21, label %18

18:                                               ; preds = %0
  %19 = load double, double* %6, align 8
  %20 = fcmp oeq double %19, 1.800000e+02
  br i1 %20, label %21, label %23

21:                                               ; preds = %18, %0
  %22 = call i32 (i8*, ...) @printf(i8* getelementptr inbounds ([14 x i8], [14 x i8]* @.str.1, i64 0, i64 0))
  br label %64

23:                                               ; preds = %18
  %24 = load double, double* %2, align 8
  %25 = load double, double* %3, align 8
  %26 = fadd double %24, %25
  %27 = load double, double* %4, align 8
  %28 = fadd double %26, %27
  %29 = load double, double* %5, align 8
  %30 = fadd double %28, %29
  %31 = fdiv double %30, 2.000000e+00
  store double %31, double* %10, align 8
  %32 = load double, double* %10, align 8
  %33 = load double, double* %2, align 8
  %34 = fsub double %32, %33
  %35 = load double, double* %10, align 8
  %36 = load double, double* %3, align 8
  %37 = fsub double %35, %36
  %38 = fmul double %34, %37
  %39 = load double, double* %10, align 8
  %40 = load double, double* %4, align 8
  %41 = fsub double %39, %40
  %42 = fmul double %38, %41
  %43 = load double, double* %10, align 8
  %44 = load double, double* %5, align 8
  %45 = fsub double %43, %44
  %46 = fmul double %42, %45
  %47 = load double, double* %2, align 8
  %48 = load double, double* %3, align 8
  %49 = fmul double %47, %48
  %50 = load double, double* %4, align 8
  %51 = fmul double %49, %50
  %52 = load double, double* %5, align 8
  %53 = fmul double %51, %52
  %54 = load double, double* %8, align 8
  %55 = call double @cos(double %54) #3
  %56 = fmul double %53, %55
  %57 = load double, double* %8, align 8
  %58 = call double @cos(double %57) #3
  %59 = fmul double %56, %58
  %60 = fsub double %46, %59
  %61 = call double @sqrt(double %60) #3
  store double %61, double* %9, align 8
  %62 = load double, double* %9, align 8
  %63 = call i32 (i8*, ...) @printf(i8* getelementptr inbounds ([6 x i8], [6 x i8]* @.str.2, i64 0, i64 0), double %62)
  br label %64

64:                                               ; preds = %23, %21
  %65 = call i32 @getchar()
  %66 = call i32 @getchar()
  %67 = load i32, i32* %1, align 4
  ret i32 %67
}

declare dso_local i32 @__isoc99_scanf(i8*, ...) #1

declare dso_local i32 @printf(i8*, ...) #1

; Function Attrs: nounwind
declare dso_local double @sqrt(double) #2

; Function Attrs: nounwind
declare dso_local double @cos(double) #2

declare dso_local i32 @getchar() #1


!llvm.module.flags = !{!0}
!llvm.ident = !{!1}

!0 = !{i32 1, !"wchar_size", i32 4}
!1 = !{!"clang version 10.0.0-4ubuntu1 "}
